; Function Attrs: mustprogress nounwind uwtable
define void @_ZN2cv4rgbd9RgbdFrameD2Ev(ptr noundef nonnull align 8 dereferenceable(400) initializes((0, 8)) %0) unnamed_addr #5 align 2 {
  store ptr getelementptr inbounds nuw inrange(-16, 24) (i8, ptr @_ZTVN2cv4rgbd9RgbdFrameE, i64 16), ptr %0, align 8, !tbaa !15
  %2 = getelementptr inbounds nuw i8, ptr %0, i64 304
  tail call void @_ZN2cv3MatD1Ev(ptr noundef nonnull align 8 dereferenceable(96) %2) #31
  %3 = getelementptr inbounds nuw i8, ptr %0, i64 208
  tail call void @_ZN2cv3MatD1Ev(ptr noundef nonnull align 8 dereferenceable(96) %3) #31
  %4 = getelementptr inbounds nuw i8, ptr %0, i64 112
  tail call void @_ZN2cv3MatD1Ev(ptr noundef nonnull align 8 dereferenceable(96) %4) #31
  %5 = getelementptr inbounds nuw i8, ptr %0, i64 16
  tail call void @_ZN2cv3MatD1Ev(ptr noundef nonnull align 8 dereferenceable(96) %5) #31
  ret void
}